; Function Attrs: mustprogress uwtable
define void @_ZN5boost25notify_all_at_thread_exitERNS_18condition_variableENS_11unique_lockINS_5mutexEEE(ptr noundef nonnull align 8 dereferenceable(88) %0, ptr nocapture noundef %1) local_unnamed_addr #9 personality ptr @__gxx_personality_v0 {
  %3 = tail call noundef zeroext i1 @_ZN5boost13thread_detail17enter_once_regionERNS_9once_flagE(ptr noundef nonnull align 4 dereferenceable(4) @_ZN5boost6detail12_GLOBAL__N_128current_thread_tls_init_flagE) #32
  br i1 %3, label %_ZN5boost6detail6invokeIPFvvEJEEEDTclclsr5boostE7forwardIT_Efp_Espclsr5boostE7forwardIT0_Efp0_EEEOS4_DpOS5_.exit.i.i, label %_ZN5boost6detail23get_current_thread_dataEv.exit

_ZN5boost6detail6invokeIPFvvEJEEEDTclclsr5boostE7forwardIT_Efp_Espclsr5boostE7forwardIT0_Efp0_EEEOS4_DpOS5_.exit.i.i: ; preds = %2
  %4 = tail call i32 @pthread_key_create(ptr noundef nonnull @_ZN5boost6detail12_GLOBAL__N_122current_thread_tls_keyE, ptr noundef nonnull @_ZN5boost6detail12_GLOBAL__N_114tls_destructorEPv) #32
  tail call void @_ZN5boost13thread_detail18commit_once_regionERNS_9once_flagE(ptr noundef nonnull align 4 dereferenceable(4) @_ZN5boost6detail12_GLOBAL__N_128current_thread_tls_init_flagE) #32
  br label %_ZN5boost6detail23get_current_thread_dataEv.exit

_ZN5boost6detail23get_current_thread_dataEv.exit: ; preds = %2, %_ZN5boost6detail6invokeIPFvvEJEEEDTclclsr5boostE7forwardIT_Efp_Espclsr5boostE7forwardIT0_Efp0_EEEOS4_DpOS5_.exit.i.i
  %5 = load i32, ptr @_ZN5boost6detail12_GLOBAL__N_122current_thread_tls_keyE, align 4, !tbaa !54
  %6 = tail call noundef ptr @pthread_getspecific(i32 noundef %5) #32
  %.not = icmp eq ptr %6, null
  br i1 %.not, label %13, label %7

7:                                                ; preds = %_ZN5boost6detail23get_current_thread_dataEv.exit
  %8 = load ptr, ptr %1, align 8, !tbaa !47
  store ptr null, ptr %1, align 8, !tbaa !47
  %9 = getelementptr inbounds nuw i8, ptr %1, i64 8
  store i8 0, ptr %9, align 8, !tbaa !50
  %10 = load ptr, ptr %6, align 8, !tbaa !17
  %11 = getelementptr inbounds i8, ptr %10, i64 24
  %12 = load ptr, ptr %11, align 8
  tail call void %12(ptr noundef nonnull align 8 dereferenceable(306) %6, ptr noundef nonnull %0, ptr noundef %8)
  br label %13

13:                                               ; preds = %7, %_ZN5boost6detail23get_current_thread_dataEv.exit
  ret void
}